; Function Attrs: nofree norecurse nosync nounwind memory(argmem: read) uwtable
define nonnull ptr @lv_textarea_get_placeholder_text(ptr noundef readonly captures(address_is_null) %0) local_unnamed_addr #3 {
  %.not = icmp eq ptr %0, null
  br i1 %.not, label %.preheader, label %2

.preheader:                                       ; preds = %1, %.preheader
  br label %.preheader

2:                                                ; preds = %1
  %3 = getelementptr inbounds nuw i8, ptr %0, i64 72
  %4 = load ptr, ptr %3, align 8, !tbaa !25
  %.not7 = icmp eq ptr %4, null
  %.str.1. = select i1 %.not7, ptr @.str.1, ptr %4
  ret ptr %.str.1.
}